target datalayout = "e-m:e-p270:32:32-p271:32:32-p272:64:64-i64:64-i128:128-f80:128-n8:16:32:64-S128"
target triple = "x86_64-pc-linux-gnu"

%struct.Pdr_Man_t_ = type { ptr, ptr, ptr, ptr, ptr, ptr, ptr, ptr, %struct.Vec_Ptr_t_, ptr, i32, i32, ptr, ptr, ptr, ptr, ptr, ptr, i32, i32, ptr, ptr, ptr, i32, i32, ptr, ptr, ptr, ptr, ptr, ptr, ptr, ptr, ptr, ptr, ptr, ptr, ptr, ptr, i32, i32, i32, i32, i32, i32, i32, i32, i32, i32, i32, i32, i32, i32, i32, i32, i32, i64, i64, i64, i64, i64, i64, i64, i64, i64, i64, i64, i64 }
%struct.Vec_Ptr_t_ = type { i32, i32, ptr }
%struct.Vec_Int_t_ = type { i32, i32, ptr }
%struct.Pdr_Set_t_ = type { i64, i32, i32, i32, [0 x i32] }
%struct.sat_solver_t = type { i32, i32, i32, i32, %struct.Sat_Mem_t_, i32, i32, ptr, ptr, i32, i32, i32, i32, i32, i64, i64, i64, ptr, ptr, i32, i32, %struct.veci_t, ptr, i32, ptr, ptr, ptr, ptr, ptr, ptr, ptr, ptr, %struct.veci_t, %struct.veci_t, %struct.veci_t, %struct.veci_t, ptr, %struct.veci_t, i32, i32, i32, double, double, i32, i32, i32, %struct.stats_t, i32, i32, i32, i32, i32, i64, i64, i64, %struct.veci_t, ptr, i32, i32, i32, %struct.veci_t, %struct.veci_t, i32, i32, i32, ptr, ptr, i32, ptr, i32, i32, %struct.veci_t, %struct.veci_t, %struct.veci_t, ptr, ptr, i32, ptr }
%struct.Sat_Mem_t_ = type { [2 x i32], [2 x i32], [2 x i32], [2 x i32], i32, i32, i32, i32, ptr }
%struct.stats_t = type { i32, i32, i32, i64, i64, i64, i64, i64, i64, i64 }
%struct.veci_t = type { i32, i32, ptr }

; Function Attrs: nounwind uwtable
define internal void @sat_solver_compress(ptr noundef %0) #0 {
  %2 = alloca ptr, align 8
  %3 = alloca i32, align 4
  store ptr %0, ptr %2, align 8
  %4 = load ptr, ptr %2, align 8
  %5 = getelementptr inbounds %struct.sat_solver_t, ptr %4, i32 0, i32 3
  %6 = load i32, ptr %5, align 4
  %7 = load ptr, ptr %2, align 8
  %8 = getelementptr inbounds %struct.sat_solver_t, ptr %7, i32 0, i32 2
  %9 = load i32, ptr %8, align 8
  %10 = icmp ne i32 %6, %9
  br i1 %10, label %11, label %14

11:                                               ; preds = %1
  %12 = load ptr, ptr %2, align 8
  %13 = call i32 @sat_solver_simplify(ptr noundef %12)
  store i32 %13, ptr %3, align 4
  br label %14

14:                                               ; preds = %11, %1
  ret void
}

; Function Attrs: nounwind uwtable
define internal i32 @Vec_IntSize(ptr noundef %0) #0 {
  %2 = alloca ptr, align 8
  store ptr %0, ptr %2, align 8
  %3 = load ptr, ptr %2, align 8
  %4 = getelementptr inbounds %struct.Vec_Int_t_, ptr %3, i32 0, i32 1
  %5 = load i32, ptr %4, align 4
  ret i32 %5
}

; Function Attrs: nounwind uwtable
define internal ptr @Vec_IntArray(ptr noundef %0) #0 {
  %2 = alloca ptr, align 8
  store ptr %0, ptr %2, align 8
  %3 = load ptr, ptr %2, align 8
  %4 = getelementptr inbounds %struct.Vec_Int_t_, ptr %3, i32 0, i32 2
  %5 = load ptr, ptr %4, align 8
  ret ptr %5
}

; Function Attrs: nounwind uwtable
define internal ptr @Vec_PtrEntry(ptr noundef %0, i32 noundef %1) #0 {
  %3 = alloca ptr, align 8
  %4 = alloca i32, align 4
  store ptr %0, ptr %3, align 8
  store i32 %1, ptr %4, align 4
  %5 = load ptr, ptr %3, align 8
  %6 = getelementptr inbounds %struct.Vec_Ptr_t_, ptr %5, i32 0, i32 2
  %7 = load ptr, ptr %6, align 8
  %8 = load i32, ptr %4, align 4
  %9 = sext i32 %8 to i64
  %10 = getelementptr inbounds ptr, ptr %7, i64 %9
  %11 = load ptr, ptr %10, align 8
  ret ptr %11
}

; Function Attrs: nounwind uwtable
define internal i32 @Vec_PtrSize(ptr noundef %0) #0 {
  %2 = alloca ptr, align 8
  store ptr %0, ptr %2, align 8
  %3 = load ptr, ptr %2, align 8
  %4 = getelementptr inbounds %struct.Vec_Ptr_t_, ptr %3, i32 0, i32 1
  %5 = load i32, ptr %4, align 4
  ret i32 %5
}

; Function Attrs: nounwind uwtable
define i32 @Pdr_ManDeriveMarkNonInductive(ptr noundef %0, ptr noundef %1) #0 {
  %3 = alloca ptr, align 8
  %4 = alloca ptr, align 8
  %5 = alloca ptr, align 8
  %6 = alloca ptr, align 8
  %7 = alloca ptr, align 8
  %8 = alloca i32, align 4
  %9 = alloca i32, align 4
  %10 = alloca i32, align 4
  %11 = alloca i32, align 4
  %12 = alloca i32, align 4
  store ptr %0, ptr %3, align 8
  store ptr %1, ptr %4, align 8
  store i32 0, ptr %11, align 4
  store i32 0, ptr %12, align 4
  %13 = load ptr, ptr %3, align 8
  %14 = getelementptr inbounds %struct.Pdr_Man_t_, ptr %13, i32 0, i32 13
  %15 = load ptr, ptr %14, align 8
  %16 = call i32 @Vec_PtrSize(ptr noundef %15)
  store i32 %16, ptr %9, align 4
  %17 = load ptr, ptr %3, align 8
  %18 = load i32, ptr %9, align 4
  %19 = call ptr @Pdr_ManCreateSolver(ptr noundef %17, i32 noundef %18)
  store ptr %19, ptr %5, align 8
  store i32 0, ptr %8, align 4
  br label %20

20:                                               ; preds = %53, %2
  %21 = load i32, ptr %8, align 4
  %22 = load ptr, ptr %4, align 8
  %23 = call i32 @Vec_PtrSize(ptr noundef %22)
  %24 = icmp slt i32 %21, %23
  br i1 %24, label %25, label %29

25:                                               ; preds = %20
  %26 = load ptr, ptr %4, align 8
  %27 = load i32, ptr %8, align 4
  %28 = call ptr @Vec_PtrEntry(ptr noundef %26, i32 noundef %27)
  store ptr %28, ptr %7, align 8
  br label %29

29:                                               ; preds = %25, %20
  %30 = phi i1 [ false, %20 ], [ true, %25 ]
  br i1 %30, label %31, label %56

31:                                               ; preds = %29
  %32 = load ptr, ptr %7, align 8
  %33 = getelementptr inbounds %struct.Pdr_Set_t_, ptr %32, i32 0, i32 1
  %34 = load i32, ptr %33, align 8
  %35 = icmp eq i32 %34, -1
  br i1 %35, label %36, label %37

36:                                               ; preds = %31
  br label %53

37:                                               ; preds = %31
  %38 = load ptr, ptr %3, align 8
  %39 = load i32, ptr %9, align 4
  %40 = load ptr, ptr %7, align 8
  %41 = call ptr @Pdr_ManCubeToLits(ptr noundef %38, i32 noundef %39, ptr noundef %40, i32 noundef 1, i32 noundef 0)
  store ptr %41, ptr %6, align 8
  %42 = load ptr, ptr %5, align 8
  %43 = load ptr, ptr %6, align 8
  %44 = call ptr @Vec_IntArray(ptr noundef %43)
  %45 = load ptr, ptr %6, align 8
  %46 = call ptr @Vec_IntArray(ptr noundef %45)
  %47 = load ptr, ptr %6, align 8
  %48 = call i32 @Vec_IntSize(ptr noundef %47)
  %49 = sext i32 %48 to i64
  %50 = getelementptr inbounds i32, ptr %46, i64 %49
  %51 = call i32 @sat_solver_addclause(ptr noundef %42, ptr noundef %44, ptr noundef %50)
  store i32 %51, ptr %10, align 4
  %52 = load ptr, ptr %5, align 8
  call void @sat_solver_compress(ptr noundef %52)
  br label %53

53:                                               ; preds = %37, %36
  %54 = load i32, ptr %8, align 4
  %55 = add nsw i32 %54, 1
  store i32 %55, ptr %8, align 4
  br label %20, !llvm.loop !30

56:                                               ; preds = %29
  store i32 0, ptr %8, align 4
  br label %57

57:                                               ; preds = %98, %56
  %58 = load i32, ptr %8, align 4
  %59 = load ptr, ptr %4, align 8
  %60 = call i32 @Vec_PtrSize(ptr noundef %59)
  %61 = icmp slt i32 %58, %60
  br i1 %61, label %62, label %66

62:                                               ; preds = %57
  %63 = load ptr, ptr %4, align 8
  %64 = load i32, ptr %8, align 4
  %65 = call ptr @Vec_PtrEntry(ptr noundef %63, i32 noundef %64)
  store ptr %65, ptr %7, align 8
  br label %66

66:                                               ; preds = %62, %57
  %67 = phi i1 [ false, %57 ], [ true, %62 ]
  br i1 %67, label %68, label %101

68:                                               ; preds = %66
  %69 = load ptr, ptr %7, align 8
  %70 = getelementptr inbounds %struct.Pdr_Set_t_, ptr %69, i32 0, i32 1
  %71 = load i32, ptr %70, align 8
  %72 = icmp eq i32 %71, -1
  br i1 %72, label %73, label %74

73:                                               ; preds = %68
  br label %98

74:                                               ; preds = %68
  %75 = load ptr, ptr %3, align 8
  %76 = load i32, ptr %9, align 4
  %77 = load ptr, ptr %7, align 8
  %78 = call ptr @Pdr_ManCubeToLits(ptr noundef %75, i32 noundef %76, ptr noundef %77, i32 noundef 0, i32 noundef 1)
  store ptr %78, ptr %6, align 8
  %79 = load ptr, ptr %5, align 8
  %80 = load ptr, ptr %6, align 8
  %81 = call ptr @Vec_IntArray(ptr noundef %80)
  %82 = load ptr, ptr %6, align 8
  %83 = call ptr @Vec_IntArray(ptr noundef %82)
  %84 = load ptr, ptr %6, align 8
  %85 = call i32 @Vec_IntSize(ptr noundef %84)
  %86 = sext i32 %85 to i64
  %87 = getelementptr inbounds i32, ptr %83, i64 %86
  %88 = call i32 @sat_solver_solve(ptr noundef %79, ptr noundef %81, ptr noundef %87, i64 noundef 0, i64 noundef 0, i64 noundef 0, i64 noundef 0)
  store i32 %88, ptr %10, align 4
  %89 = load i32, ptr %10, align 4
  %90 = icmp ne i32 %89, -1
  br i1 %90, label %91, label %94

91:                                               ; preds = %74
  %92 = load ptr, ptr %7, align 8
  %93 = getelementptr inbounds %struct.Pdr_Set_t_, ptr %92, i32 0, i32 1
  store i32 -1, ptr %93, align 8
  store i32 1, ptr %11, align 4
  br label %97

94:                                               ; preds = %74
  %95 = load i32, ptr %12, align 4
  %96 = add nsw i32 %95, 1
  store i32 %96, ptr %12, align 4
  br label %97

97:                                               ; preds = %94, %91
  br label %98

98:                                               ; preds = %97, %73
  %99 = load i32, ptr %8, align 4
  %100 = add nsw i32 %99, 1
  store i32 %100, ptr %8, align 4
  br label %57, !llvm.loop !31

101:                                              ; preds = %66
  %102 = load i32, ptr %11, align 4
  ret i32 %102
}