; Function Attrs: nounwind uwtable
define range(i32 0, 2) i32 @Pdr_ManDeriveMarkNonInductive(ptr noundef %0, ptr noundef readonly captures(none) %1) local_unnamed_addr #0 {
  %3 = getelementptr inbounds nuw i8, ptr %0, i64 104
  %4 = load ptr, ptr %3, align 8
  %5 = getelementptr i8, ptr %4, i64 4
  %.val40 = load i32, ptr %5, align 4
  %6 = tail call ptr @Pdr_ManCreateSolver(ptr noundef %0, i32 noundef %.val40) #18
  %7 = getelementptr i8, ptr %1, i64 4
  %.val3949 = load i32, ptr %7, align 4
  %8 = icmp sgt i32 %.val3949, 0
  br i1 %8, label %.lr.ph, label %.critedge2

.lr.ph:                                           ; preds = %2
  %9 = getelementptr i8, ptr %1, i64 8
  %10 = getelementptr inbounds nuw i8, ptr %6, i64 12
  %11 = getelementptr inbounds nuw i8, ptr %6, i64 8
  br label %14

.critedge.preheader:                              ; preds = %sat_solver_compress.exit
  %12 = icmp sgt i32 %.val39, 0
  br i1 %12, label %.lr.ph55, label %.critedge2

.lr.ph55:                                         ; preds = %.critedge.preheader
  %13 = getelementptr i8, ptr %1, i64 8
  br label %33

14:                                               ; preds = %.lr.ph, %sat_solver_compress.exit
  %indvars.iv = phi i64 [ 0, %.lr.ph ], [ %indvars.iv.next, %sat_solver_compress.exit ]
  %.val42 = load ptr, ptr %9, align 8
  %15 = getelementptr inbounds nuw ptr, ptr %.val42, i64 %indvars.iv
  %16 = load ptr, ptr %15, align 8
  %17 = getelementptr inbounds nuw i8, ptr %16, i64 8
  %18 = load i32, ptr %17, align 8
  %19 = icmp eq i32 %18, -1
  br i1 %19, label %sat_solver_compress.exit, label %20

20:                                               ; preds = %14
  %21 = tail call ptr @Pdr_ManCubeToLits(ptr noundef %0, i32 noundef %.val40, ptr noundef nonnull %16, i32 noundef 1, i32 noundef 0) #18
  %22 = getelementptr i8, ptr %21, i64 8
  %.val48 = load ptr, ptr %22, align 8
  %23 = getelementptr i8, ptr %21, i64 4
  %.val44 = load i32, ptr %23, align 4
  %24 = sext i32 %.val44 to i64
  %25 = getelementptr inbounds i32, ptr %.val48, i64 %24
  %26 = tail call i32 @sat_solver_addclause(ptr noundef %6, ptr noundef %.val48, ptr noundef %25) #18
  %27 = load i32, ptr %10, align 4
  %28 = load i32, ptr %11, align 8
  %.not.i = icmp eq i32 %27, %28
  br i1 %.not.i, label %sat_solver_compress.exit, label %29

29:                                               ; preds = %20
  %30 = tail call i32 @sat_solver_simplify(ptr noundef nonnull %6) #18
  br label %sat_solver_compress.exit

sat_solver_compress.exit:                         ; preds = %29, %20, %14
  %indvars.iv.next = add nuw nsw i64 %indvars.iv, 1
  %.val39 = load i32, ptr %7, align 4
  %31 = sext i32 %.val39 to i64
  %32 = icmp slt i64 %indvars.iv.next, %31
  br i1 %32, label %14, label %.critedge.preheader, !llvm.loop !30

33:                                               ; preds = %.lr.ph55, %.critedge
  %indvars.iv57 = phi i64 [ 0, %.lr.ph55 ], [ %indvars.iv.next58, %.critedge ]
  %.03553 = phi i32 [ 0, %.lr.ph55 ], [ %.136, %.critedge ]
  %.val41 = load ptr, ptr %13, align 8
  %34 = getelementptr inbounds nuw ptr, ptr %.val41, i64 %indvars.iv57
  %35 = load ptr, ptr %34, align 8
  %36 = getelementptr inbounds nuw i8, ptr %35, i64 8
  %37 = load i32, ptr %36, align 8
  %38 = icmp eq i32 %37, -1
  br i1 %38, label %.critedge, label %39

39:                                               ; preds = %33
  %40 = tail call ptr @Pdr_ManCubeToLits(ptr noundef %0, i32 noundef %.val40, ptr noundef nonnull %35, i32 noundef 0, i32 noundef 1) #18
  %41 = getelementptr i8, ptr %40, i64 8
  %.val46 = load ptr, ptr %41, align 8
  %42 = getelementptr i8, ptr %40, i64 4
  %.val43 = load i32, ptr %42, align 4
  %43 = sext i32 %.val43 to i64
  %44 = getelementptr inbounds i32, ptr %.val46, i64 %43
  %45 = tail call i32 @sat_solver_solve(ptr noundef %6, ptr noundef %.val46, ptr noundef %44, i64 noundef 0, i64 noundef 0, i64 noundef 0, i64 noundef 0) #18
  %.not = icmp eq i32 %45, -1
  br i1 %.not, label %.critedge, label %46

46:                                               ; preds = %39
  store i32 -1, ptr %36, align 8
  br label %.critedge

.critedge:                                        ; preds = %39, %46, %33
  %.136 = phi i32 [ %.03553, %33 ], [ 1, %46 ], [ %.03553, %39 ]
  %indvars.iv.next58 = add nuw nsw i64 %indvars.iv57, 1
  %.val = load i32, ptr %7, align 4
  %47 = sext i32 %.val to i64
  %48 = icmp slt i64 %indvars.iv.next58, %47
  br i1 %48, label %33, label %.critedge2, !llvm.loop !31

.critedge2:                                       ; preds = %.critedge, %2, %.critedge.preheader
  %.035.lcssa = phi i32 [ 0, %.critedge.preheader ], [ 0, %2 ], [ %.136, %.critedge ]
  ret i32 %.035.lcssa
}